; ModuleID = '57/217.c'
source_filename = "57/217.c"
target datalayout = "e-m:e-p270:32:32-p271:32:32-p272:64:64-i64:64-f80:128-n8:16:32:64-S128"
target triple = "x86_64-pc-linux-gnu"

@.str = private unnamed_addr constant [4 x i8] c"%d\0A\00", align 1
@.str.1 = private unnamed_addr constant [4 x i8] c"%s\0A\00", align 1
@.str.2 = private unnamed_addr constant [3 x i8] c"%c\00", align 1
@.str.3 = private unnamed_addr constant [2 x i8] c"\0A\00", align 1

; Function Attrs: noinline nounwind uwtable
define dso_local void @main() #0 {
  %1 = alloca i32, align 4
  %2 = alloca i32, align 4
  %3 = alloca i32, align 4
  %4 = alloca [100 x i32], align 16
  %5 = alloca [100 x [50 x i8]], align 16
  %6 = call i32 (i8*, ...) @__isoc99_scanf(i8* getelementptr inbounds ([4 x i8], [4 x i8]* @.str, i64 0, i64 0), i32* %1)
  store i32 0, i32* %2, align 4
  br label %7

7:                                                ; preds = %26, %0
  %8 = load i32, i32* %2, align 4
  %9 = load i32, i32* %1, align 4
  %10 = icmp slt i32 %8, %9
  br i1 %10, label %11, label %29

11:                                               ; preds = %7
  %12 = load i32, i32* %2, align 4
  %13 = sext i32 %12 to i64
  %14 = getelementptr inbounds [100 x [50 x i8]], [100 x [50 x i8]]* %5, i64 0, i64 %13
  %15 = getelementptr inbounds [50 x i8], [50 x i8]* %14, i64 0, i64 0
  %16 = call i32 (i8*, ...) @__isoc99_scanf(i8* getelementptr inbounds ([4 x i8], [4 x i8]* @.str.1, i64 0, i64 0), i8* %15)
  %17 = load i32, i32* %2, align 4
  %18 = sext i32 %17 to i64
  %19 = getelementptr inbounds [100 x [50 x i8]], [100 x [50 x i8]]* %5, i64 0, i64 %18
  %20 = getelementptr inbounds [50 x i8], [50 x i8]* %19, i64 0, i64 0
  %21 = call i64 @strlen(i8* %20) #3
  %22 = trunc i64 %21 to i32
  %23 = load i32, i32* %2, align 4
  %24 = sext i32 %23 to i64
  %25 = getelementptr inbounds [100 x i32], [100 x i32]* %4, i64 0, i64 %24
  store i32 %22, i32* %25, align 4
  br label %26

26:                                               ; preds = %11
  %27 = load i32, i32* %2, align 4
  %28 = add nsw i32 %27, 1
  store i32 %28, i32* %2, align 4
  br label %7

29:                                               ; preds = %7
  store i32 0, i32* %2, align 4
  br label %30

30:                                               ; preds = %205, %29
  %31 = load i32, i32* %2, align 4
  %32 = load i32, i32* %1, align 4
  %33 = icmp slt i32 %31, %32
  br i1 %33, label %34, label %208

34:                                               ; preds = %30
  %35 = load i32, i32* %2, align 4
  %36 = sext i32 %35 to i64
  %37 = getelementptr inbounds [100 x [50 x i8]], [100 x [50 x i8]]* %5, i64 0, i64 %36
  %38 = load i32, i32* %2, align 4
  %39 = sext i32 %38 to i64
  %40 = getelementptr inbounds [100 x i32], [100 x i32]* %4, i64 0, i64 %39
  %41 = load i32, i32* %40, align 4
  %42 = sub nsw i32 %41, 2
  %43 = sext i32 %42 to i64
  %44 = getelementptr inbounds [50 x i8], [50 x i8]* %37, i64 0, i64 %43
  %45 = load i8, i8* %44, align 1
  %46 = sext i8 %45 to i32
  %47 = icmp eq i32 %46, 101
  br i1 %47, label %48, label %85

48:                                               ; preds = %34
  %49 = load i32, i32* %2, align 4
  %50 = sext i32 %49 to i64
  %51 = getelementptr inbounds [100 x [50 x i8]], [100 x [50 x i8]]* %5, i64 0, i64 %50
  %52 = load i32, i32* %2, align 4
  %53 = sext i32 %52 to i64
  %54 = getelementptr inbounds [100 x i32], [100 x i32]* %4, i64 0, i64 %53
  %55 = load i32, i32* %54, align 4
  %56 = sub nsw i32 %55, 1
  %57 = sext i32 %56 to i64
  %58 = getelementptr inbounds [50 x i8], [50 x i8]* %51, i64 0, i64 %57
  %59 = load i8, i8* %58, align 1
  %60 = sext i8 %59 to i32
  %61 = icmp eq i32 %60, 114
  br i1 %61, label %62, label %85

62:                                               ; preds = %48
  store i32 0, i32* %3, align 4
  br label %63

63:                                               ; preds = %81, %62
  %64 = load i32, i32* %3, align 4
  %65 = load i32, i32* %2, align 4
  %66 = sext i32 %65 to i64
  %67 = getelementptr inbounds [100 x i32], [100 x i32]* %4, i64 0, i64 %66
  %68 = load i32, i32* %67, align 4
  %69 = sub nsw i32 %68, 2
  %70 = icmp slt i32 %64, %69
  br i1 %70, label %71, label %84

71:                                               ; preds = %63
  %72 = load i32, i32* %2, align 4
  %73 = sext i32 %72 to i64
  %74 = getelementptr inbounds [100 x [50 x i8]], [100 x [50 x i8]]* %5, i64 0, i64 %73
  %75 = load i32, i32* %3, align 4
  %76 = sext i32 %75 to i64
  %77 = getelementptr inbounds [50 x i8], [50 x i8]* %74, i64 0, i64 %76
  %78 = load i8, i8* %77, align 1
  %79 = sext i8 %78 to i32
  %80 = call i32 (i8*, ...) @printf(i8* getelementptr inbounds ([3 x i8], [3 x i8]* @.str.2, i64 0, i64 0), i32 %79)
  br label %81

81:                                               ; preds = %71
  %82 = load i32, i32* %3, align 4
  %83 = add nsw i32 %82, 1
  store i32 %83, i32* %3, align 4
  br label %63

84:                                               ; preds = %63
  br label %85

85:                                               ; preds = %84, %48, %34
  %86 = call i32 (i8*, ...) @printf(i8* getelementptr inbounds ([2 x i8], [2 x i8]* @.str.3, i64 0, i64 0))
  %87 = load i32, i32* %2, align 4
  %88 = sext i32 %87 to i64
  %89 = getelementptr inbounds [100 x [50 x i8]], [100 x [50 x i8]]* %5, i64 0, i64 %88
  %90 = load i32, i32* %2, align 4
  %91 = sext i32 %90 to i64
  %92 = getelementptr inbounds [100 x i32], [100 x i32]* %4, i64 0, i64 %91
  %93 = load i32, i32* %92, align 4
  %94 = sub nsw i32 %93, 2
  %95 = sext i32 %94 to i64
  %96 = getelementptr inbounds [50 x i8], [50 x i8]* %89, i64 0, i64 %95
  %97 = load i8, i8* %96, align 1
  %98 = sext i8 %97 to i32
  %99 = icmp eq i32 %98, 108
  br i1 %99, label %100, label %138

100:                                              ; preds = %85
  %101 = load i32, i32* %2, align 4
  %102 = sext i32 %101 to i64
  %103 = getelementptr inbounds [100 x [50 x i8]], [100 x [50 x i8]]* %5, i64 0, i64 %102
  %104 = load i32, i32* %2, align 4
  %105 = sext i32 %104 to i64
  %106 = getelementptr inbounds [100 x i32], [100 x i32]* %4, i64 0, i64 %105
  %107 = load i32, i32* %106, align 4
  %108 = sub nsw i32 %107, 1
  %109 = sext i32 %108 to i64
  %110 = getelementptr inbounds [50 x i8], [50 x i8]* %103, i64 0, i64 %109
  %111 = load i8, i8* %110, align 1
  %112 = sext i8 %111 to i32
  %113 = icmp eq i32 %112, 121
  br i1 %113, label %114, label %138

114:                                              ; preds = %100
  store i32 0, i32* %3, align 4
  br label %115

115:                                              ; preds = %133, %114
  %116 = load i32, i32* %3, align 4
  %117 = load i32, i32* %2, align 4
  %118 = sext i32 %117 to i64
  %119 = getelementptr inbounds [100 x i32], [100 x i32]* %4, i64 0, i64 %118
  %120 = load i32, i32* %119, align 4
  %121 = sub nsw i32 %120, 2
  %122 = icmp slt i32 %116, %121
  br i1 %122, label %123, label %136

123:                                              ; preds = %115
  %124 = load i32, i32* %2, align 4
  %125 = sext i32 %124 to i64
  %126 = getelementptr inbounds [100 x [50 x i8]], [100 x [50 x i8]]* %5, i64 0, i64 %125
  %127 = load i32, i32* %3, align 4
  %128 = sext i32 %127 to i64
  %129 = getelementptr inbounds [50 x i8], [50 x i8]* %126, i64 0, i64 %128
  %130 = load i8, i8* %129, align 1
  %131 = sext i8 %130 to i32
  %132 = call i32 (i8*, ...) @printf(i8* getelementptr inbounds ([3 x i8], [3 x i8]* @.str.2, i64 0, i64 0), i32 %131)
  br label %133

133:                                              ; preds = %123
  %134 = load i32, i32* %3, align 4
  %135 = add nsw i32 %134, 1
  store i32 %135, i32* %3, align 4
  br label %115

136:                                              ; preds = %115
  %137 = call i32 (i8*, ...) @printf(i8* getelementptr inbounds ([2 x i8], [2 x i8]* @.str.3, i64 0, i64 0))
  br label %138

138:                                              ; preds = %136, %100, %85
  %139 = load i32, i32* %2, align 4
  %140 = sext i32 %139 to i64
  %141 = getelementptr inbounds [100 x [50 x i8]], [100 x [50 x i8]]* %5, i64 0, i64 %140
  %142 = load i32, i32* %2, align 4
  %143 = sext i32 %142 to i64
  %144 = getelementptr inbounds [100 x i32], [100 x i32]* %4, i64 0, i64 %143
  %145 = load i32, i32* %144, align 4
  %146 = sub nsw i32 %145, 3
  %147 = sext i32 %146 to i64
  %148 = getelementptr inbounds [50 x i8], [50 x i8]* %141, i64 0, i64 %147
  %149 = load i8, i8* %148, align 1
  %150 = sext i8 %149 to i32
  %151 = icmp eq i32 %150, 105
  br i1 %151, label %152, label %204

152:                                              ; preds = %138
  %153 = load i32, i32* %2, align 4
  %154 = sext i32 %153 to i64
  %155 = getelementptr inbounds [100 x [50 x i8]], [100 x [50 x i8]]* %5, i64 0, i64 %154
  %156 = load i32, i32* %2, align 4
  %157 = sext i32 %156 to i64
  %158 = getelementptr inbounds [100 x i32], [100 x i32]* %4, i64 0, i64 %157
  %159 = load i32, i32* %158, align 4
  %160 = sub nsw i32 %159, 2
  %161 = sext i32 %160 to i64
  %162 = getelementptr inbounds [50 x i8], [50 x i8]* %155, i64 0, i64 %161
  %163 = load i8, i8* %162, align 1
  %164 = sext i8 %163 to i32
  %165 = icmp eq i32 %164, 110
  br i1 %165, label %166, label %204

166:                                              ; preds = %152
  %167 = load i32, i32* %2, align 4
  %168 = sext i32 %167 to i64
  %169 = getelementptr inbounds [100 x [50 x i8]], [100 x [50 x i8]]* %5, i64 0, i64 %168
  %170 = load i32, i32* %2, align 4
  %171 = sext i32 %170 to i64
  %172 = getelementptr inbounds [100 x i32], [100 x i32]* %4, i64 0, i64 %171
  %173 = load i32, i32* %172, align 4
  %174 = sub nsw i32 %173, 1
  %175 = sext i32 %174 to i64
  %176 = getelementptr inbounds [50 x i8], [50 x i8]* %169, i64 0, i64 %175
  %177 = load i8, i8* %176, align 1
  %178 = sext i8 %177 to i32
  %179 = icmp eq i32 %178, 103
  br i1 %179, label %180, label %204

180:                                              ; preds = %166
  store i32 0, i32* %3, align 4
  br label %181

181:                                              ; preds = %199, %180
  %182 = load i32, i32* %3, align 4
  %183 = load i32, i32* %2, align 4
  %184 = sext i32 %183 to i64
  %185 = getelementptr inbounds [100 x i32], [100 x i32]* %4, i64 0, i64 %184
  %186 = load i32, i32* %185, align 4
  %187 = sub nsw i32 %186, 3
  %188 = icmp slt i32 %182, %187
  br i1 %188, label %189, label %202

189:                                              ; preds = %181
  %190 = load i32, i32* %2, align 4
  %191 = sext i32 %190 to i64
  %192 = getelementptr inbounds [100 x [50 x i8]], [100 x [50 x i8]]* %5, i64 0, i64 %191
  %193 = load i32, i32* %3, align 4
  %194 = sext i32 %193 to i64
  %195 = getelementptr inbounds [50 x i8], [50 x i8]* %192, i64 0, i64 %194
  %196 = load i8, i8* %195, align 1
  %197 = sext i8 %196 to i32
  %198 = call i32 (i8*, ...) @printf(i8* getelementptr inbounds ([3 x i8], [3 x i8]* @.str.2, i64 0, i64 0), i32 %197)
  br label %199

199:                                              ; preds = %189
  %200 = load i32, i32* %3, align 4
  %201 = add nsw i32 %200, 1
  store i32 %201, i32* %3, align 4
  br label %181

202:                                              ; preds = %181
  %203 = call i32 (i8*, ...) @printf(i8* getelementptr inbounds ([2 x i8], [2 x i8]* @.str.3, i64 0, i64 0))
  br label %204

204:                                              ; preds = %202, %166, %152, %138
  br label %205

205:                                              ; preds = %204
  %206 = load i32, i32* %2, align 4
  %207 = add nsw i32 %206, 1
  store i32 %207, i32* %2, align 4
  br label %30

208:                                              ; preds = %30
  ret void
}

declare dso_local i32 @__isoc99_scanf(i8*, ...) #1

; Function Attrs: nounwind readonly
declare dso_local i64 @strlen(i8*) #2

declare dso_local i32 @printf(i8*, ...) #1


!llvm.module.flags = !{!0}
!llvm.ident = !{!1}

!0 = !{i32 1, !"wchar_size", i32 4}
!1 = !{!"clang version 10.0.0-4ubuntu1 "}
